; ModuleID = '7/51.c'
source_filename = "7/51.c"
target datalayout = "e-m:e-p270:32:32-p271:32:32-p272:64:64-i64:64-f80:128-n8:16:32:64-S128"
target triple = "x86_64-pc-linux-gnu"

@.str = private unnamed_addr constant [3 x i8] c"%s\00", align 1
@.str.1 = private unnamed_addr constant [3 x i8] c"%c\00", align 1
@.str.2 = private unnamed_addr constant [2 x i8] c"\0A\00", align 1

; Function Attrs: noinline nounwind uwtable
define dso_local i32 @main() #0 {
  %1 = alloca i32, align 4
  %2 = alloca [256 x i8], align 16
  %3 = alloca [256 x i8], align 16
  %4 = alloca [256 x i8], align 16
  %5 = alloca [256 x i8], align 16
  %6 = alloca i32, align 4
  %7 = alloca i32, align 4
  %8 = alloca i32, align 4
  %9 = alloca i8*, align 8
  store i32 0, i32* %1, align 4
  %10 = getelementptr inbounds [256 x i8], [256 x i8]* %2, i64 0, i64 0
  %11 = call i32 (i8*, ...) bitcast (i32 (...)* @gets to i32 (i8*, ...)*)(i8* %10)
  %12 = getelementptr inbounds [256 x i8], [256 x i8]* %3, i64 0, i64 0
  %13 = call i32 (i8*, ...) bitcast (i32 (...)* @gets to i32 (i8*, ...)*)(i8* %12)
  %14 = getelementptr inbounds [256 x i8], [256 x i8]* %4, i64 0, i64 0
  %15 = call i32 (i8*, ...) bitcast (i32 (...)* @gets to i32 (i8*, ...)*)(i8* %14)
  %16 = getelementptr inbounds [256 x i8], [256 x i8]* %2, i64 0, i64 0
  %17 = call i64 @strlen(i8* %16) #4
  %18 = trunc i64 %17 to i32
  store i32 %18, i32* %7, align 4
  %19 = getelementptr inbounds [256 x i8], [256 x i8]* %3, i64 0, i64 0
  %20 = call i64 @strlen(i8* %19) #4
  %21 = trunc i64 %20 to i32
  store i32 %21, i32* %8, align 4
  store i32 0, i32* %6, align 4
  br label %22

22:                                               ; preds = %49, %0
  %23 = load i32, i32* %6, align 4
  %24 = load i32, i32* %7, align 4
  %25 = load i32, i32* %8, align 4
  %26 = sub nsw i32 %24, %25
  %27 = icmp sle i32 %23, %26
  br i1 %27, label %28, label %52

28:                                               ; preds = %22
  %29 = load i32, i32* %6, align 4
  %30 = sext i32 %29 to i64
  %31 = getelementptr inbounds [256 x i8], [256 x i8]* %2, i64 0, i64 %30
  store i8* %31, i8** %9, align 8
  %32 = getelementptr inbounds [256 x i8], [256 x i8]* %5, i64 0, i64 0
  %33 = load i8*, i8** %9, align 8
  %34 = load i32, i32* %8, align 4
  %35 = sext i32 %34 to i64
  %36 = call i8* @strncpy(i8* %32, i8* %33, i64 %35) #5
  %37 = load i32, i32* %8, align 4
  %38 = sext i32 %37 to i64
  %39 = getelementptr inbounds [256 x i8], [256 x i8]* %5, i64 0, i64 %38
  store i8 0, i8* %39, align 1
  %40 = getelementptr inbounds [256 x i8], [256 x i8]* %5, i64 0, i64 0
  %41 = getelementptr inbounds [256 x i8], [256 x i8]* %3, i64 0, i64 0
  %42 = call i32 @strcmp(i8* %40, i8* %41) #4
  %43 = icmp eq i32 %42, 0
  br i1 %43, label %44, label %48

44:                                               ; preds = %28
  %45 = load i32, i32* %6, align 4
  %46 = sext i32 %45 to i64
  %47 = getelementptr inbounds [256 x i8], [256 x i8]* %2, i64 0, i64 %46
  store i8 64, i8* %47, align 1
  br label %52

48:                                               ; preds = %28
  br label %49

49:                                               ; preds = %48
  %50 = load i32, i32* %6, align 4
  %51 = add nsw i32 %50, 1
  store i32 %51, i32* %6, align 4
  br label %22

52:                                               ; preds = %44, %22
  store i32 0, i32* %6, align 4
  br label %53

53:                                               ; preds = %79, %52
  %54 = load i32, i32* %6, align 4
  %55 = load i32, i32* %7, align 4
  %56 = icmp slt i32 %54, %55
  br i1 %56, label %57, label %82

57:                                               ; preds = %53
  %58 = load i32, i32* %6, align 4
  %59 = sext i32 %58 to i64
  %60 = getelementptr inbounds [256 x i8], [256 x i8]* %2, i64 0, i64 %59
  %61 = load i8, i8* %60, align 1
  %62 = sext i8 %61 to i32
  %63 = icmp eq i32 %62, 64
  br i1 %63, label %64, label %71

64:                                               ; preds = %57
  %65 = getelementptr inbounds [256 x i8], [256 x i8]* %4, i64 0, i64 0
  %66 = call i32 (i8*, ...) @printf(i8* getelementptr inbounds ([3 x i8], [3 x i8]* @.str, i64 0, i64 0), i8* %65)
  %67 = load i32, i32* %6, align 4
  %68 = load i32, i32* %8, align 4
  %69 = add nsw i32 %67, %68
  %70 = sub nsw i32 %69, 1
  store i32 %70, i32* %6, align 4
  br label %78

71:                                               ; preds = %57
  %72 = load i32, i32* %6, align 4
  %73 = sext i32 %72 to i64
  %74 = getelementptr inbounds [256 x i8], [256 x i8]* %2, i64 0, i64 %73
  %75 = load i8, i8* %74, align 1
  %76 = sext i8 %75 to i32
  %77 = call i32 (i8*, ...) @printf(i8* getelementptr inbounds ([3 x i8], [3 x i8]* @.str.1, i64 0, i64 0), i32 %76)
  br label %78

78:                                               ; preds = %71, %64
  br label %79

79:                                               ; preds = %78
  %80 = load i32, i32* %6, align 4
  %81 = add nsw i32 %80, 1
  store i32 %81, i32* %6, align 4
  br label %53

82:                                               ; preds = %53
  %83 = call i32 (i8*, ...) @printf(i8* getelementptr inbounds ([2 x i8], [2 x i8]* @.str.2, i64 0, i64 0))
  ret i32 0
}

declare dso_local i32 @gets(...) #1

; Function Attrs: nounwind readonly
declare dso_local i64 @strlen(i8*) #2

; Function Attrs: nounwind
declare dso_local i8* @strncpy(i8*, i8*, i64) #3

; Function Attrs: nounwind readonly
declare dso_local i32 @strcmp(i8*, i8*) #2

declare dso_local i32 @printf(i8*, ...) #1


!llvm.module.flags = !{!0}
!llvm.ident = !{!1}

!0 = !{i32 1, !"wchar_size", i32 4}
!1 = !{!"clang version 10.0.0-4ubuntu1 "}
