; ModuleID = 'source-C-CXX/6/51.c'
source_filename = "source-C-CXX/6/51.c"
target datalayout = "e-m:e-p270:32:32-p271:32:32-p272:64:64-i64:64-f80:128-n8:16:32:64-S128"
target triple = "x86_64-pc-linux-gnu"

@.str = private unnamed_addr constant [3 x i8] c"%s\00", align 1

; Function Attrs: nounwind sspstrong uwtable
define dso_local i32 @main() local_unnamed_addr #0 {
  %1 = alloca [256 x i8], align 16
  %2 = alloca [256 x i8], align 16
  %3 = alloca [256 x i8], align 16
  %4 = alloca [256 x i8], align 16
  %5 = getelementptr inbounds [256 x i8], [256 x i8]* %1, i64 0, i64 0
  call void @llvm.lifetime.start.p0i8(i64 256, i8* nonnull %5) #7
  %6 = getelementptr inbounds [256 x i8], [256 x i8]* %2, i64 0, i64 0
  call void @llvm.lifetime.start.p0i8(i64 256, i8* nonnull %6) #7
  %7 = getelementptr inbounds [256 x i8], [256 x i8]* %3, i64 0, i64 0
  call void @llvm.lifetime.start.p0i8(i64 256, i8* nonnull %7) #7
  %8 = getelementptr inbounds [256 x i8], [256 x i8]* %4, i64 0, i64 0
  call void @llvm.lifetime.start.p0i8(i64 256, i8* nonnull %8) #7
  %9 = call i32 (i8*, ...) bitcast (i32 (...)* @gets to i32 (i8*, ...)*)(i8* nonnull %5) #7
  %10 = call i32 (i8*, ...) bitcast (i32 (...)* @gets to i32 (i8*, ...)*)(i8* nonnull %6) #7
  %11 = call i32 (i8*, ...) bitcast (i32 (...)* @gets to i32 (i8*, ...)*)(i8* nonnull %7) #7
  %12 = call i64 @strlen(i8* noundef nonnull %5) #8
  %13 = trunc i64 %12 to i32
  %14 = call i64 @strlen(i8* noundef nonnull %6) #8
  %15 = trunc i64 %14 to i32
  %16 = shl i64 %14, 32
  %17 = ashr exact i64 %16, 32
  %18 = getelementptr inbounds [256 x i8], [256 x i8]* %4, i64 0, i64 %17
  %19 = icmp slt i32 %13, %15
  br i1 %19, label %34, label %20

20:                                               ; preds = %0
  %21 = add i64 %12, 1
  %22 = sub i64 %21, %14
  %23 = and i64 %22, 4294967295
  br label %27

24:                                               ; preds = %27
  %25 = add nuw nsw i64 %28, 1
  %26 = icmp eq i64 %25, %23
  br i1 %26, label %34, label %27, !llvm.loop !5

27:                                               ; preds = %20, %24
  %28 = phi i64 [ 0, %20 ], [ %25, %24 ]
  %29 = getelementptr inbounds [256 x i8], [256 x i8]* %1, i64 0, i64 %28
  %30 = call i8* @strncpy(i8* noundef nonnull %8, i8* nonnull %29, i64 %17) #7
  store i8 0, i8* %18, align 1, !tbaa !7
  %31 = call i32 @strcmp(i8* noundef nonnull %8, i8* noundef nonnull %6) #8
  %32 = icmp eq i32 %31, 0
  br i1 %32, label %33, label %24

33:                                               ; preds = %27
  store i8 64, i8* %29, align 1, !tbaa !7
  br label %34

34:                                               ; preds = %24, %0, %33
  %35 = add i32 %15, -1
  %36 = icmp sgt i32 %13, 0
  br i1 %36, label %37, label %53

37:                                               ; preds = %34, %49
  %38 = phi i32 [ %51, %49 ], [ 0, %34 ]
  %39 = sext i32 %38 to i64
  %40 = getelementptr inbounds [256 x i8], [256 x i8]* %1, i64 0, i64 %39
  %41 = load i8, i8* %40, align 1, !tbaa !7
  %42 = icmp eq i8 %41, 64
  br i1 %42, label %43, label %46

43:                                               ; preds = %37
  %44 = call i32 (i8*, ...) @printf(i8* nonnull dereferenceable(1) getelementptr inbounds ([3 x i8], [3 x i8]* @.str, i64 0, i64 0), i8* nonnull %7)
  %45 = add i32 %35, %38
  br label %49

46:                                               ; preds = %37
  %47 = sext i8 %41 to i32
  %48 = call i32 @putchar(i32 %47)
  br label %49

49:                                               ; preds = %43, %46
  %50 = phi i32 [ %45, %43 ], [ %38, %46 ]
  %51 = add nsw i32 %50, 1
  %52 = icmp slt i32 %51, %13
  br i1 %52, label %37, label %53, !llvm.loop !10

53:                                               ; preds = %49, %34
  %54 = call i32 @putchar(i32 10)
  call void @llvm.lifetime.end.p0i8(i64 256, i8* nonnull %8) #7
  call void @llvm.lifetime.end.p0i8(i64 256, i8* nonnull %7) #7
  call void @llvm.lifetime.end.p0i8(i64 256, i8* nonnull %6) #7
  call void @llvm.lifetime.end.p0i8(i64 256, i8* nonnull %5) #7
  ret i32 0
}

; Function Attrs: argmemonly mustprogress nofree nosync nounwind willreturn
declare void @llvm.lifetime.start.p0i8(i64 immarg, i8* nocapture) #1

declare i32 @gets(...) local_unnamed_addr #2

; Function Attrs: argmemonly mustprogress nofree nounwind readonly willreturn
declare i64 @strlen(i8* nocapture) local_unnamed_addr #3

; Function Attrs: argmemonly mustprogress nofree nounwind willreturn
declare i8* @strncpy(i8* noalias returned writeonly, i8* noalias nocapture readonly, i64) local_unnamed_addr #4

; Function Attrs: argmemonly mustprogress nofree nounwind readonly willreturn
declare i32 @strcmp(i8* nocapture, i8* nocapture) local_unnamed_addr #3

; Function Attrs: nofree nounwind
declare noundef i32 @printf(i8* nocapture noundef readonly, ...) local_unnamed_addr #5

; Function Attrs: argmemonly mustprogress nofree nosync nounwind willreturn
declare void @llvm.lifetime.end.p0i8(i64 immarg, i8* nocapture) #1

; Function Attrs: nofree nounwind
declare noundef i32 @putchar(i32 noundef) local_unnamed_addr #6


!llvm.module.flags = !{!0, !1, !2, !3}
!llvm.ident = !{!4}

!0 = !{i32 1, !"wchar_size", i32 4}
!1 = !{i32 7, !"PIC Level", i32 2}
!2 = !{i32 7, !"PIE Level", i32 2}
!3 = !{i32 7, !"uwtable", i32 1}
!4 = !{!"clang version 13.0.0"}
!5 = distinct !{!5, !6}
!6 = !{!"llvm.loop.mustprogress"}
!7 = !{!8, !8, i64 0}
!8 = !{!"omnipotent char", !9, i64 0}
!9 = !{!"Simple C/C++ TBAA"}
!10 = distinct !{!10, !6}
